target datalayout = "e-m:e-p270:32:32-p271:32:32-p272:64:64-i64:64-i128:128-f80:128-n8:16:32:64-S128"
target triple = "x86_64-pc-linux-gnu"

%struct._zval_struct = type { %union._zend_value, %union.anon, %union.anon.2 }
%union._zend_value = type { i64 }
%union.anon = type { i32 }
%union.anon.2 = type { i32 }

; Function Attrs: nounwind uwtable
define dso_local void @zend_declare_property_bool(ptr noundef %0, ptr noundef %1, i64 noundef %2, i64 noundef %3, i32 noundef %4) #0 {
  %6 = alloca ptr, align 8
  %7 = alloca ptr, align 8
  %8 = alloca i64, align 8
  %9 = alloca i64, align 8
  %10 = alloca i32, align 4
  %11 = alloca %struct._zval_struct, align 8
  store ptr %0, ptr %6, align 8, !tbaa !66
  store ptr %1, ptr %7, align 8, !tbaa !47
  store i64 %2, ptr %8, align 8, !tbaa !85
  store i64 %3, ptr %9, align 8, !tbaa !85
  store i32 %4, ptr %10, align 4, !tbaa !4
  call void @llvm.lifetime.start.p0(i64 16, ptr %11) #21
  br label %12

12:                                               ; preds = %5
  %13 = load i64, ptr %9, align 8, !tbaa !85
  %14 = icmp ne i64 %13, 0
  %15 = select i1 %14, i32 3, i32 2
  %16 = getelementptr inbounds nuw %struct._zval_struct, ptr %11, i32 0, i32 1
  store i32 %15, ptr %16, align 8, !tbaa !44
  br label %17

17:                                               ; preds = %12
  br label %18

18:                                               ; preds = %17
  %19 = load ptr, ptr %6, align 8, !tbaa !66
  %20 = load ptr, ptr %7, align 8, !tbaa !47
  %21 = load i64, ptr %8, align 8, !tbaa !85
  %22 = load i32, ptr %10, align 4, !tbaa !4
  call void @zend_declare_property(ptr noundef %19, ptr noundef %20, i64 noundef %21, ptr noundef %11, i32 noundef %22)
  call void @llvm.lifetime.end.p0(i64 16, ptr %11) #21
  ret void
}