; Function Attrs: nounwind uwtable
define dso_local void @zend_declare_property_bool(ptr noundef %0, ptr noundef readonly captures(none) %1, i64 noundef %2, i64 noundef %3, i32 noundef %4) local_unnamed_addr #2 {
  %6 = alloca %struct._zval_struct, align 8
  call void @llvm.lifetime.start.p0(i64 16, ptr nonnull %6) #34
  %.not = icmp eq i64 %3, 0
  %7 = select i1 %.not, i32 2, i32 3
  %8 = getelementptr inbounds nuw i8, ptr %6, i64 8
  store i32 %7, ptr %8, align 8, !tbaa !42
  call void @zend_declare_property(ptr noundef %0, ptr noundef %1, i64 noundef %2, ptr noundef nonnull %6, i32 noundef %4)
  call void @llvm.lifetime.end.p0(i64 16, ptr nonnull %6) #34
  ret void
}